; ModuleID = 'source-C-CXX/35/1098.c'
source_filename = "source-C-CXX/35/1098.c"
target datalayout = "e-m:e-p270:32:32-p271:32:32-p272:64:64-i64:64-f80:128-n8:16:32:64-S128"
target triple = "x86_64-pc-linux-gnu"

@.str = private unnamed_addr constant [5 x i8] c"%s%s\00", align 1
@.str.1 = private unnamed_addr constant [3 x i8] c"NO\00", align 1
@.str.2 = private unnamed_addr constant [4 x i8] c"YES\00", align 1

; Function Attrs: nofree nounwind sspstrong uwtable
define dso_local i32 @main() local_unnamed_addr #0 {
  %1 = alloca [100 x i8], align 16
  %2 = alloca [100 x i8], align 16
  %3 = getelementptr inbounds [100 x i8], [100 x i8]* %1, i64 0, i64 0
  call void @llvm.lifetime.start.p0i8(i64 100, i8* nonnull %3) #5
  call void @llvm.memset.p0i8.i64(i8* noundef nonnull align 16 dereferenceable(100) %3, i8 0, i64 100, i1 false)
  %4 = getelementptr inbounds [100 x i8], [100 x i8]* %2, i64 0, i64 0
  call void @llvm.lifetime.start.p0i8(i64 100, i8* nonnull %4) #5
  call void @llvm.memset.p0i8.i64(i8* noundef nonnull align 16 dereferenceable(100) %4, i8 0, i64 100, i1 false)
  %5 = call i32 (i8*, ...) @__isoc99_scanf(i8* getelementptr inbounds ([5 x i8], [5 x i8]* @.str, i64 0, i64 0), [100 x i8]* nonnull %1, [100 x i8]* nonnull %2)
  %6 = call i64 @strlen(i8* noundef nonnull %3) #6
  %7 = trunc i64 %6 to i32
  %8 = call i64 @strlen(i8* noundef nonnull %4) #6
  %9 = trunc i64 %8 to i32
  %10 = icmp eq i32 %7, %9
  br i1 %10, label %11, label %40

11:                                               ; preds = %0
  %12 = icmp sgt i32 %7, 0
  br i1 %12, label %13, label %36

13:                                               ; preds = %11
  %14 = and i64 %6, 4294967295
  br label %15

15:                                               ; preds = %13, %32
  %16 = phi i64 [ 0, %13 ], [ %34, %32 ]
  %17 = phi i32 [ 0, %13 ], [ %33, %32 ]
  %18 = getelementptr inbounds [100 x i8], [100 x i8]* %1, i64 0, i64 %16
  %19 = load i8, i8* %18, align 1, !tbaa !5
  br label %20

20:                                               ; preds = %15, %25
  %21 = phi i64 [ 0, %15 ], [ %26, %25 ]
  %22 = getelementptr inbounds [100 x i8], [100 x i8]* %2, i64 0, i64 %21
  %23 = load i8, i8* %22, align 1, !tbaa !5
  %24 = icmp eq i8 %19, %23
  br i1 %24, label %28, label %25

25:                                               ; preds = %20
  %26 = add nuw nsw i64 %21, 1
  %27 = icmp eq i64 %26, %14
  br i1 %27, label %32, label %20, !llvm.loop !8

28:                                               ; preds = %20
  %29 = and i64 %21, 4294967295
  %30 = getelementptr inbounds [100 x i8], [100 x i8]* %2, i64 0, i64 %29
  %31 = add nsw i32 %17, 1
  store i8 0, i8* %18, align 1, !tbaa !5
  store i8 0, i8* %30, align 1, !tbaa !5
  br label %32

32:                                               ; preds = %25, %28
  %33 = phi i32 [ %31, %28 ], [ %17, %25 ]
  %34 = add nuw nsw i64 %16, 1
  %35 = icmp eq i64 %34, %14
  br i1 %35, label %36, label %15, !llvm.loop !10

36:                                               ; preds = %32, %11
  %37 = phi i32 [ 0, %11 ], [ %33, %32 ]
  %38 = icmp eq i32 %37, %7
  %39 = select i1 %38, i8* getelementptr inbounds ([4 x i8], [4 x i8]* @.str.2, i64 0, i64 0), i8* getelementptr inbounds ([3 x i8], [3 x i8]* @.str.1, i64 0, i64 0)
  br label %40

40:                                               ; preds = %36, %0
  %41 = phi i8* [ getelementptr inbounds ([3 x i8], [3 x i8]* @.str.1, i64 0, i64 0), %0 ], [ %39, %36 ]
  %42 = call i32 (i8*, ...) @printf(i8* nonnull dereferenceable(1) %41)
  call void @llvm.lifetime.end.p0i8(i64 100, i8* nonnull %4) #5
  call void @llvm.lifetime.end.p0i8(i64 100, i8* nonnull %3) #5
  ret i32 0
}

; Function Attrs: argmemonly mustprogress nofree nosync nounwind willreturn
declare void @llvm.lifetime.start.p0i8(i64 immarg, i8* nocapture) #1

; Function Attrs: argmemonly mustprogress nofree nounwind willreturn writeonly
declare void @llvm.memset.p0i8.i64(i8* nocapture writeonly, i8, i64, i1 immarg) #2

; Function Attrs: nofree nounwind
declare noundef i32 @__isoc99_scanf(i8* nocapture noundef readonly, ...) local_unnamed_addr #3

; Function Attrs: argmemonly mustprogress nofree nounwind readonly willreturn
declare i64 @strlen(i8* nocapture) local_unnamed_addr #4

; Function Attrs: nofree nounwind
declare noundef i32 @printf(i8* nocapture noundef readonly, ...) local_unnamed_addr #3

; Function Attrs: argmemonly mustprogress nofree nosync nounwind willreturn
declare void @llvm.lifetime.end.p0i8(i64 immarg, i8* nocapture) #1


!llvm.module.flags = !{!0, !1, !2, !3}
!llvm.ident = !{!4}

!0 = !{i32 1, !"wchar_size", i32 4}
!1 = !{i32 7, !"PIC Level", i32 2}
!2 = !{i32 7, !"PIE Level", i32 2}
!3 = !{i32 7, !"uwtable", i32 1}
!4 = !{!"clang version 13.0.0"}
!5 = !{!6, !6, i64 0}
!6 = !{!"omnipotent char", !7, i64 0}
!7 = !{!"Simple C/C++ TBAA"}
!8 = distinct !{!8, !9}
!9 = !{!"llvm.loop.mustprogress"}
!10 = distinct !{!10, !9}
